target datalayout = "e-m:e-p270:32:32-p271:32:32-p272:64:64-i64:64-i128:128-f80:128-n8:16:32:64-S128"
target triple = "x86_64-pc-linux-gnu"

%"class.toku::locktree_manager" = type { i64, i64, %"struct.toku::lt_counters", ptr, ptr, ptr, ptr, %"class.toku::omt", %"class.std::shared_ptr", %struct.toku_mutex_t, %struct.toku_mutex_t, i64, i64, i64, i64, i64, i64, i64, %"class.toku::locktree_manager::locktree_escalator" }
%"struct.toku::lt_counters" = type { i64, i64, i64, i64, i64 }
%"class.toku::omt" = type { i8, i32, %union.anon }
%union.anon = type { %"struct.toku::omt<toku::locktree *>::omt_array" }
%"struct.toku::omt<toku::locktree *>::omt_array" = type { i32, i32, ptr }
%"class.std::shared_ptr" = type { %"class.std::__shared_ptr" }
%"class.std::__shared_ptr" = type { ptr, %"class.std::__shared_count" }
%"class.std::__shared_count" = type { ptr }
%struct.toku_mutex_t = type { %union.pthread_mutex_t, ptr }
%union.pthread_mutex_t = type { %struct.__pthread_mutex_s }
%struct.__pthread_mutex_s = type { i32, i32, i32, i32, i32, i16, i16, %struct.__pthread_internal_list }
%struct.__pthread_internal_list = type { ptr, ptr }
%"class.toku::locktree_manager::locktree_escalator" = type <{ %struct.toku_mutex_t, %struct.toku_cond_t, i8, [7 x i8] }>
%struct.toku_cond_t = type { %union.pthread_cond_t, ptr }
%union.pthread_cond_t = type { %struct.__pthread_cond_s }
%struct.__pthread_cond_s = type { %union.__atomic_wide_counter, %union.__atomic_wide_counter, [2 x i32], [2 x i32], i32, i32, [2 x i32] }
%union.__atomic_wide_counter = type { i64 }
%struct.toku_mutex_instrumentation = type { i8 }
%struct.timeval = type { i64, i64 }
%struct.toku_cond_instrumentation = type { i8 }

@.str = private unnamed_addr constant [162 x i8] c"generated/home/dtcxzyw/WorkSpace/Projects/compilers/llvm-opt-benchmark/bench/rocksdb/rocksdb/utilities/transactions/lock/range/range_tree/lib/locktree/manager.cc\00", align 1

; Function Attrs: inlinehint mustprogress nounwind uwtable
define linkonce_odr void @_Z24toku_instr_cond_wait_endR25toku_cond_instrumentationi(ptr noundef nonnull align 1 dereferenceable(1) %0, i32 noundef %1) #7 comdat {
  %3 = alloca ptr, align 8
  %4 = alloca i32, align 4
  store ptr %0, ptr %3, align 8, !tbaa !180
  store i32 %1, ptr %4, align 4, !tbaa !40
  ret void
}

; Function Attrs: inlinehint mustprogress nounwind uwtable
define linkonce_odr void @_Z26toku_instr_cond_wait_startR25toku_cond_instrumentation18toku_instr_cond_opR11toku_cond_tR12toku_mutex_tPKci(ptr noundef nonnull align 1 dereferenceable(1) %0, i32 noundef %1, ptr noundef nonnull align 8 dereferenceable(56) %2, ptr noundef nonnull align 8 dereferenceable(48) %3, ptr noundef %4, i32 noundef %5) #7 comdat {
  %7 = alloca ptr, align 8
  %8 = alloca i32, align 4
  %9 = alloca ptr, align 8
  %10 = alloca ptr, align 8
  %11 = alloca ptr, align 8
  %12 = alloca i32, align 4
  store ptr %0, ptr %7, align 8, !tbaa !180
  store i32 %1, ptr %8, align 4, !tbaa !182
  store ptr %2, ptr %9, align 8, !tbaa !111
  store ptr %3, ptr %10, align 8, !tbaa !38
  store ptr %4, ptr %11, align 8, !tbaa !53
  store i32 %5, ptr %12, align 4, !tbaa !40
  ret void
}

; Function Attrs: inlinehint mustprogress nounwind uwtable
define linkonce_odr void @_Z25toku_instr_cond_broadcastR11toku_cond_t(ptr noundef nonnull align 8 dereferenceable(56) %0) #7 comdat {
  %2 = alloca ptr, align 8
  store ptr %0, ptr %2, align 8, !tbaa !111
  ret void
}

; Function Attrs: inlinehint mustprogress nounwind uwtable
define linkonce_odr void @_Z23toku_instr_mutex_unlockP9PSI_mutex(ptr noundef %0) #7 comdat {
  %2 = alloca ptr, align 8
  store ptr %0, ptr %2, align 8, !tbaa !152
  ret void
}

; Function Attrs: inlinehint mustprogress nounwind uwtable
define linkonce_odr void @_Z25toku_instr_mutex_lock_endR26toku_mutex_instrumentationi(ptr noundef nonnull align 1 dereferenceable(1) %0, i32 noundef %1) #7 comdat {
  %3 = alloca ptr, align 8
  %4 = alloca i32, align 4
  store ptr %0, ptr %3, align 8, !tbaa !150
  store i32 %1, ptr %4, align 4, !tbaa !40
  ret void
}

; Function Attrs: inlinehint mustprogress nounwind uwtable
define linkonce_odr void @_Z27toku_instr_mutex_lock_startR26toku_mutex_instrumentationR12toku_mutex_tPKci(ptr noundef nonnull align 1 dereferenceable(1) %0, ptr noundef nonnull align 8 dereferenceable(48) %1, ptr noundef %2, i32 noundef %3) #7 comdat {
  %5 = alloca ptr, align 8
  %6 = alloca ptr, align 8
  %7 = alloca ptr, align 8
  %8 = alloca i32, align 4
  store ptr %0, ptr %5, align 8, !tbaa !150
  store ptr %1, ptr %6, align 8, !tbaa !38
  store ptr %2, ptr %7, align 8, !tbaa !53
  store i32 %3, ptr %8, align 4, !tbaa !40
  ret void
}

; Function Attrs: mustprogress uwtable
define void @_ZN4toku16locktree_manager23add_escalator_wait_timeEm(ptr noundef nonnull align 8 dereferenceable(392) %0, i64 noundef %1) #0 align 2 {
  %3 = alloca ptr, align 8
  %4 = alloca i64, align 8
  store ptr %0, ptr %3, align 8, !tbaa !4
  store i64 %1, ptr %4, align 8, !tbaa !56
  %5 = load ptr, ptr %3, align 8
  %6 = getelementptr inbounds nuw %"class.toku::locktree_manager", ptr %5, i32 0, i32 10
  call void @_Z36toku_mutex_lock_with_source_locationP12toku_mutex_tPKci(ptr noundef %6, ptr noundef @.str, i32 noundef 382)
  %7 = getelementptr inbounds nuw %"class.toku::locktree_manager", ptr %5, i32 0, i32 14
  %8 = load i64, ptr %7, align 8, !tbaa !43
  %9 = add i64 %8, 1
  store i64 %9, ptr %7, align 8, !tbaa !43
  %10 = load i64, ptr %4, align 8, !tbaa !56
  %11 = getelementptr inbounds nuw %"class.toku::locktree_manager", ptr %5, i32 0, i32 15
  %12 = load i64, ptr %11, align 8, !tbaa !44
  %13 = add i64 %12, %10
  store i64 %13, ptr %11, align 8, !tbaa !44
  %14 = load i64, ptr %4, align 8, !tbaa !56
  %15 = icmp uge i64 %14, 1000000
  br i1 %15, label %16, label %24

16:                                               ; preds = %2
  %17 = getelementptr inbounds nuw %"class.toku::locktree_manager", ptr %5, i32 0, i32 16
  %18 = load i64, ptr %17, align 8, !tbaa !45
  %19 = add i64 %18, 1
  store i64 %19, ptr %17, align 8, !tbaa !45
  %20 = load i64, ptr %4, align 8, !tbaa !56
  %21 = getelementptr inbounds nuw %"class.toku::locktree_manager", ptr %5, i32 0, i32 17
  %22 = load i64, ptr %21, align 8, !tbaa !46
  %23 = add i64 %22, %20
  store i64 %23, ptr %21, align 8, !tbaa !46
  br label %24

24:                                               ; preds = %16, %2
  %25 = getelementptr inbounds nuw %"class.toku::locktree_manager", ptr %5, i32 0, i32 10
  call void @_Z17toku_mutex_unlockP12toku_mutex_t(ptr noundef %25)
  ret void
}

; Function Attrs: inlinehint mustprogress uwtable
define linkonce_odr void @_Z35toku_cond_wait_with_source_locationP11toku_cond_tP12toku_mutex_tPKci(ptr noundef %0, ptr noundef %1, ptr noundef %2, i32 noundef %3) #3 comdat {
  %5 = alloca ptr, align 8
  %6 = alloca ptr, align 8
  %7 = alloca ptr, align 8
  %8 = alloca i32, align 4
  %9 = alloca %struct.toku_cond_instrumentation, align 1
  %10 = alloca i32, align 4
  store ptr %0, ptr %5, align 8, !tbaa !111
  store ptr %1, ptr %6, align 8, !tbaa !38
  store ptr %2, ptr %7, align 8, !tbaa !53
  store i32 %3, ptr %8, align 4, !tbaa !40
  call void @llvm.lifetime.start.p0(i64 1, ptr %9) #17
  %11 = load ptr, ptr %5, align 8, !tbaa !111
  %12 = load ptr, ptr %6, align 8, !tbaa !38
  %13 = load ptr, ptr %7, align 8, !tbaa !53
  %14 = load i32, ptr %8, align 4, !tbaa !40
  call void @_Z26toku_instr_cond_wait_startR25toku_cond_instrumentation18toku_instr_cond_opR11toku_cond_tR12toku_mutex_tPKci(ptr noundef nonnull align 1 dereferenceable(1) %9, i32 noundef 0, ptr noundef nonnull align 8 dereferenceable(56) %11, ptr noundef nonnull align 8 dereferenceable(48) %12, ptr noundef %13, i32 noundef %14)
  call void @llvm.lifetime.start.p0(i64 4, ptr %10) #17
  %15 = load ptr, ptr %5, align 8, !tbaa !111
  %16 = getelementptr inbounds nuw %struct.toku_cond_t, ptr %15, i32 0, i32 0
  %17 = load ptr, ptr %6, align 8, !tbaa !38
  %18 = getelementptr inbounds nuw %struct.toku_mutex_t, ptr %17, i32 0, i32 0
  %19 = call i32 @pthread_cond_wait(ptr noundef %16, ptr noundef %18)
  store i32 %19, ptr %10, align 4, !tbaa !40
  %20 = load i32, ptr %10, align 4, !tbaa !40
  call void @_Z24toku_instr_cond_wait_endR25toku_cond_instrumentationi(ptr noundef nonnull align 1 dereferenceable(1) %9, i32 noundef %20)
  call void @llvm.lifetime.end.p0(i64 4, ptr %10) #17
  call void @llvm.lifetime.end.p0(i64 1, ptr %9) #17
  ret void
}

; Function Attrs: inlinehint mustprogress uwtable
define linkonce_odr void @_Z19toku_cond_broadcastP11toku_cond_t(ptr noundef %0) #3 comdat {
  %2 = alloca ptr, align 8
  %3 = alloca i32, align 4
  store ptr %0, ptr %2, align 8, !tbaa !111
  %4 = load ptr, ptr %2, align 8, !tbaa !111
  call void @_Z25toku_instr_cond_broadcastR11toku_cond_t(ptr noundef nonnull align 8 dereferenceable(56) %4)
  call void @llvm.lifetime.start.p0(i64 4, ptr %3) #17
  %5 = load ptr, ptr %2, align 8, !tbaa !111
  %6 = getelementptr inbounds nuw %struct.toku_cond_t, ptr %5, i32 0, i32 0
  %7 = call i32 @pthread_cond_broadcast(ptr noundef %6) #17
  store i32 %7, ptr %3, align 4, !tbaa !40
  call void @llvm.lifetime.end.p0(i64 4, ptr %3) #17
  ret void
}

; Function Attrs: inlinehint mustprogress uwtable
define linkonce_odr void @_Z17toku_mutex_unlockP12toku_mutex_t(ptr noundef %0) #3 comdat {
  %2 = alloca ptr, align 8
  %3 = alloca i32, align 4
  store ptr %0, ptr %2, align 8, !tbaa !38
  %4 = load ptr, ptr %2, align 8, !tbaa !38
  %5 = getelementptr inbounds nuw %struct.toku_mutex_t, ptr %4, i32 0, i32 1
  %6 = load ptr, ptr %5, align 8, !tbaa !55
  call void @_Z23toku_instr_mutex_unlockP9PSI_mutex(ptr noundef %6)
  call void @llvm.lifetime.start.p0(i64 4, ptr %3) #17
  %7 = load ptr, ptr %2, align 8, !tbaa !38
  %8 = getelementptr inbounds nuw %struct.toku_mutex_t, ptr %7, i32 0, i32 0
  %9 = call i32 @pthread_mutex_unlock(ptr noundef %8) #17
  store i32 %9, ptr %3, align 4, !tbaa !40
  call void @llvm.lifetime.end.p0(i64 4, ptr %3) #17
  ret void
}

; Function Attrs: inlinehint mustprogress uwtable
define linkonce_odr void @_Z36toku_mutex_lock_with_source_locationP12toku_mutex_tPKci(ptr noundef %0, ptr noundef %1, i32 noundef %2) #3 comdat {
  %4 = alloca ptr, align 8
  %5 = alloca ptr, align 8
  %6 = alloca i32, align 4
  %7 = alloca %struct.toku_mutex_instrumentation, align 1
  %8 = alloca i32, align 4
  store ptr %0, ptr %4, align 8, !tbaa !38
  store ptr %1, ptr %5, align 8, !tbaa !53
  store i32 %2, ptr %6, align 4, !tbaa !40
  call void @llvm.lifetime.start.p0(i64 1, ptr %7) #17
  %9 = load ptr, ptr %4, align 8, !tbaa !38
  %10 = load ptr, ptr %5, align 8, !tbaa !53
  %11 = load i32, ptr %6, align 4, !tbaa !40
  call void @_Z27toku_instr_mutex_lock_startR26toku_mutex_instrumentationR12toku_mutex_tPKci(ptr noundef nonnull align 1 dereferenceable(1) %7, ptr noundef nonnull align 8 dereferenceable(48) %9, ptr noundef %10, i32 noundef %11)
  call void @llvm.lifetime.start.p0(i64 4, ptr %8) #17
  %12 = load ptr, ptr %4, align 8, !tbaa !38
  %13 = getelementptr inbounds nuw %struct.toku_mutex_t, ptr %12, i32 0, i32 0
  %14 = call i32 @pthread_mutex_lock(ptr noundef %13) #17
  store i32 %14, ptr %8, align 4, !tbaa !40
  %15 = load i32, ptr %8, align 4, !tbaa !40
  call void @_Z25toku_instr_mutex_lock_endR26toku_mutex_instrumentationi(ptr noundef nonnull align 1 dereferenceable(1) %7, i32 noundef %15)
  call void @llvm.lifetime.end.p0(i64 4, ptr %8) #17
  call void @llvm.lifetime.end.p0(i64 1, ptr %7) #17
  ret void
}

; Function Attrs: inlinehint mustprogress nounwind uwtable
define internal noundef i64 @_ZL26toku_current_time_microsecv() #7 {
  %1 = alloca %struct.timeval, align 8
  call void @llvm.lifetime.start.p0(i64 16, ptr %1) #17
  %2 = call i32 @gettimeofday(ptr noundef %1, ptr noundef null) #17
  %3 = getelementptr inbounds nuw %struct.timeval, ptr %1, i32 0, i32 0
  %4 = load i64, ptr %3, align 8, !tbaa !88
  %5 = mul i64 %4, 1000000
  %6 = getelementptr inbounds nuw %struct.timeval, ptr %1, i32 0, i32 1
  %7 = load i64, ptr %6, align 8, !tbaa !90
  %8 = add i64 %5, %7
  call void @llvm.lifetime.end.p0(i64 16, ptr %1) #17
  ret i64 %8
}

; Function Attrs: mustprogress uwtable
define void @_ZN4toku16locktree_manager18locktree_escalator3runEPS0_PFvPvES3_(ptr noundef nonnull align 8 dereferenceable(105) %0, ptr noundef %1, ptr noundef %2, ptr noundef %3) #0 align 2 {
  %5 = alloca ptr, align 8
  %6 = alloca ptr, align 8
  %7 = alloca ptr, align 8
  %8 = alloca ptr, align 8
  %9 = alloca i64, align 8
  %10 = alloca i64, align 8
  store ptr %0, ptr %5, align 8, !tbaa !83
  store ptr %1, ptr %6, align 8, !tbaa !4
  store ptr %2, ptr %7, align 8, !tbaa !9
  store ptr %3, ptr %8, align 8, !tbaa !9
  %11 = load ptr, ptr %5, align 8
  call void @llvm.lifetime.start.p0(i64 8, ptr %9) #17
  %12 = call noundef i64 @_ZL26toku_current_time_microsecv()
  store i64 %12, ptr %9, align 8, !tbaa !56
  %13 = getelementptr inbounds nuw %"class.toku::locktree_manager::locktree_escalator", ptr %11, i32 0, i32 0
  call void @_Z36toku_mutex_lock_with_source_locationP12toku_mutex_tPKci(ptr noundef %13, ptr noundef @.str, i32 noundef 438)
  %14 = getelementptr inbounds nuw %"class.toku::locktree_manager::locktree_escalator", ptr %11, i32 0, i32 2
  %15 = load i8, ptr %14, align 8, !tbaa !85, !range !49, !noundef !50
  %16 = trunc i8 %15 to i1
  br i1 %16, label %25, label %17

17:                                               ; preds = %4
  %18 = getelementptr inbounds nuw %"class.toku::locktree_manager::locktree_escalator", ptr %11, i32 0, i32 2
  store i8 1, ptr %18, align 8, !tbaa !85
  %19 = getelementptr inbounds nuw %"class.toku::locktree_manager::locktree_escalator", ptr %11, i32 0, i32 0
  call void @_Z17toku_mutex_unlockP12toku_mutex_t(ptr noundef %19)
  %20 = load ptr, ptr %7, align 8, !tbaa !9
  %21 = load ptr, ptr %8, align 8, !tbaa !9
  call void %20(ptr noundef %21)
  %22 = getelementptr inbounds nuw %"class.toku::locktree_manager::locktree_escalator", ptr %11, i32 0, i32 0
  call void @_Z36toku_mutex_lock_with_source_locationP12toku_mutex_tPKci(ptr noundef %22, ptr noundef @.str, i32 noundef 444)
  %23 = getelementptr inbounds nuw %"class.toku::locktree_manager::locktree_escalator", ptr %11, i32 0, i32 2
  store i8 0, ptr %23, align 8, !tbaa !85
  %24 = getelementptr inbounds nuw %"class.toku::locktree_manager::locktree_escalator", ptr %11, i32 0, i32 1
  call void @_Z19toku_cond_broadcastP11toku_cond_t(ptr noundef %24)
  br label %28

25:                                               ; preds = %4
  %26 = getelementptr inbounds nuw %"class.toku::locktree_manager::locktree_escalator", ptr %11, i32 0, i32 1
  %27 = getelementptr inbounds nuw %"class.toku::locktree_manager::locktree_escalator", ptr %11, i32 0, i32 0
  call void @_Z35toku_cond_wait_with_source_locationP11toku_cond_tP12toku_mutex_tPKci(ptr noundef %26, ptr noundef %27, ptr noundef @.str, i32 noundef 448)
  br label %28

28:                                               ; preds = %25, %17
  %29 = getelementptr inbounds nuw %"class.toku::locktree_manager::locktree_escalator", ptr %11, i32 0, i32 0
  call void @_Z17toku_mutex_unlockP12toku_mutex_t(ptr noundef %29)
  call void @llvm.lifetime.start.p0(i64 8, ptr %10) #17
  %30 = call noundef i64 @_ZL26toku_current_time_microsecv()
  store i64 %30, ptr %10, align 8, !tbaa !56
  %31 = load ptr, ptr %6, align 8, !tbaa !4
  %32 = load i64, ptr %10, align 8, !tbaa !56
  %33 = load i64, ptr %9, align 8, !tbaa !56
  %34 = sub i64 %32, %33
  call void @_ZN4toku16locktree_manager23add_escalator_wait_timeEm(ptr noundef nonnull align 8 dereferenceable(392) %31, i64 noundef %34)
  call void @llvm.lifetime.end.p0(i64 8, ptr %10) #17
  call void @llvm.lifetime.end.p0(i64 8, ptr %9) #17
  ret void
}