; Function Attrs: mustprogress uwtable
define void @_ZN4toku16locktree_manager18locktree_escalator3runEPS0_PFvPvES3_(ptr noundef nonnull align 8 dereferenceable(105) %0, ptr noundef %1, ptr noundef readonly captures(none) %2, ptr noundef %3) local_unnamed_addr #0 align 2 {
  %5 = alloca %struct.timeval, align 8
  %6 = alloca %struct.timeval, align 8
  call void @llvm.lifetime.start.p0(i64 16, ptr nonnull %6) #14
  %7 = call i32 @gettimeofday(ptr noundef nonnull %6, ptr noundef null) #14
  %8 = load i64, ptr %6, align 8, !tbaa !62
  %9 = getelementptr inbounds nuw i8, ptr %6, i64 8
  %10 = load i64, ptr %9, align 8, !tbaa !64
  call void @llvm.lifetime.end.p0(i64 16, ptr nonnull %6) #14
  %11 = tail call i32 @pthread_mutex_lock(ptr noundef nonnull %0) #14
  %12 = getelementptr inbounds nuw i8, ptr %0, i64 104
  %13 = load i8, ptr %12, align 8, !tbaa !41, !range !42, !noundef !43
  %14 = trunc nuw i8 %13 to i1
  br i1 %14, label %20, label %15

15:                                               ; preds = %4
  store i8 1, ptr %12, align 8, !tbaa !41
  %16 = tail call i32 @pthread_mutex_unlock(ptr noundef nonnull %0) #14
  tail call void %2(ptr noundef %3)
  %17 = tail call i32 @pthread_mutex_lock(ptr noundef nonnull %0) #14
  store i8 0, ptr %12, align 8, !tbaa !41
  %18 = getelementptr inbounds nuw i8, ptr %0, i64 48
  %19 = tail call i32 @pthread_cond_broadcast(ptr noundef nonnull %18) #14
  br label %23

20:                                               ; preds = %4
  %21 = getelementptr inbounds nuw i8, ptr %0, i64 48
  %22 = tail call i32 @pthread_cond_wait(ptr noundef nonnull %21, ptr noundef nonnull %0)
  br label %23

23:                                               ; preds = %20, %15
  %24 = tail call i32 @pthread_mutex_unlock(ptr noundef nonnull %0) #14
  call void @llvm.lifetime.start.p0(i64 16, ptr nonnull %5) #14
  %25 = call i32 @gettimeofday(ptr noundef nonnull %5, ptr noundef null) #14
  %26 = load i64, ptr %5, align 8, !tbaa !62
  %27 = getelementptr inbounds nuw i8, ptr %5, i64 8
  %28 = load i64, ptr %27, align 8, !tbaa !64
  call void @llvm.lifetime.end.p0(i64 16, ptr nonnull %5) #14
  %reass.add = sub i64 %26, %8
  %reass.mul = mul i64 %reass.add, 1000000
  %29 = sub i64 %28, %10
  %30 = add i64 %29, %reass.mul
  %31 = getelementptr inbounds nuw i8, ptr %1, i64 176
  %32 = tail call i32 @pthread_mutex_lock(ptr noundef nonnull %31) #14
  %33 = getelementptr inbounds nuw i8, ptr %1, i64 248
  %34 = load i64, ptr %33, align 8, !tbaa !65
  %35 = add i64 %34, 1
  store i64 %35, ptr %33, align 8, !tbaa !65
  %36 = getelementptr inbounds nuw i8, ptr %1, i64 256
  %37 = load i64, ptr %36, align 8, !tbaa !66
  %38 = add i64 %37, %30
  store i64 %38, ptr %36, align 8, !tbaa !66
  %39 = icmp ugt i64 %30, 999999
  br i1 %39, label %40, label %_ZN4toku16locktree_manager23add_escalator_wait_timeEm.exit

40:                                               ; preds = %23
  %41 = getelementptr inbounds nuw i8, ptr %1, i64 264
  %42 = load i64, ptr %41, align 8, !tbaa !67
  %43 = add i64 %42, 1
  store i64 %43, ptr %41, align 8, !tbaa !67
  %44 = getelementptr inbounds nuw i8, ptr %1, i64 272
  %45 = load i64, ptr %44, align 8, !tbaa !68
  %46 = add i64 %45, %30
  store i64 %46, ptr %44, align 8, !tbaa !68
  br label %_ZN4toku16locktree_manager23add_escalator_wait_timeEm.exit

_ZN4toku16locktree_manager23add_escalator_wait_timeEm.exit: ; preds = %23, %40
  %47 = tail call i32 @pthread_mutex_unlock(ptr noundef nonnull %31) #14
  ret void
}